(lp0
F-1.0029216568047334
aF-1.0029216568047334
aF-0.2372293491124254
aF2.109386982248521
aF2.4249930177514796
aF2.555291124260355
aF2.711137278106509
aF2.683448804733728
aF2.7355988165680474
aF2.737291124260355
aF2.724368047337278
a.