(lp0
F-0.5241549822485231
aF-0.6182479053254448
aF-0.6145400473372772
aF-0.5079042130177522
aF-0.5236883313609465
aF-0.47596471005917
aF-0.48078208284023655
aF-0.6092830769230785
aF-0.576912923076922
aF-0.4851362603550286
aF-0.42970388165680334
a.