(lp0
F-0.9101524260355025
aF-1.0029216568047334
aF-0.10784473372780946
aF2.087050532544379
aF2.312881349112426
aF2.562218035502959
aF2.636983431952663
aF2.6637526627218935
aF2.74467573964497
aF2.7109834319526627
aF2.731608402366864
a.