(lp0
F2.8044351479289937
aF2.8044351479289937
aF2.8044351479289937
aF2.8044351479289937
aF2.8044351479289937
aF2.8044351479289937
aF2.8044351479289937
aF2.8044351479289937
aF2.8044351479289937
aF2.8044351479289937
aF2.8044351479289937
a.