(lp0
F-1.0029216568047334
aF-1.0029216568047334
aF-0.21615242603550192
aF2.17872750295858
aF2.2723872189349117
aF2.524679573964497
aF2.6537526627218937
aF2.697146863905325
aF2.701291124260355
aF2.718525727810651
aF2.7374449704142014
a.