(lp0
F-0.6058912189349089
aF-0.4744530887573975
aF-0.5740989585798836
aF-0.5770850887573962
aF-0.4672293491124245
aF-0.6590103195266288
aF-0.4667607810650858
aF-0.505937396449704
aF-0.5583088284023694
aF-0.49534293491124337
aF-0.48933420118343274
a.