(lp0
F-0.5405364260355051
aF-0.47530395266272074
aF-0.5934912426035506
aF-0.482397917159764
aF-0.6227237159763315
aF-0.4625732781065085
aF-0.5476932307692299
aF-0.3899683313609456
aF-0.4647554556213006
aF-0.45151275739644603
aF-0.4469909349112439
a.