(lp0
F24.858317233334482
aF24.858317233334482
aF24.858317233334482
aF24.858317233334482
aF24.858317233334482
aF24.858317233334482
aF24.858317233334482
aF24.858317233334482
aF24.858317233334482
aF24.858317233334482
aF24.858317233334482
a.