(lp0
F-1.0029216568047334
aF-1.0029216568047334
aF-0.12046011834319555
aF2.1332235502958583
aF2.2765314792899414
aF2.6029834319526626
aF2.664214201183432
aF2.7206757396449706
aF2.7439065088757397
aF2.7303776331360945
aF2.7360641893491127
a.