(lp0
F11.57890796661377
aF12.154690980911255
aF19.55463695526123
aF19.415334939956665
aF19.78387212753296
aF20.450110912322998
aF19.965660095214844
aF19.570175886154175
aF19.618075847625732
aF19.73648500442505
aF21.77269411087036
a.