(lp0
F0.014999866485595703
aF0.015000104904174805
aF0.016000032424926758
aF0.016000032424926758
aF0.016000032424926758
aF0.0
aF0.014999866485595703
aF0.016000032424926758
aF0.016000032424926758
aF0.015000104904174805
aF0.0
a.