(lp0
F-1.8051473372781226
aF-1.5920804260355115
aF-1.4313031005917167
aF-1.2516676686390622
aF-1.012044591715985
aF-0.9117102721893394
aF-0.7125865798816692
aF-0.4575383195266273
aF-0.35149550295858184
aF-0.1443662011834334
a.