(lp0
F1.8692307692307665e-05
aF3.0632144047155814
aF6.271376395288063
aF9.560676697078833
aF12.87732014682986
aF16.237431106018185
aF19.682168225098636
aF23.134005541605475
aF26.59761316187029
aF30.113027941783074
a.