(lp0
F0.0006076863905325423
aF0.374435147928994
aF0.7482813017751477
aF1.1221274556213006
aF1.4959736094674554
aF1.8698197633136093
aF2.2436659171597606
aF2.61751207100592
aF2.9913582248520703
aF3.3652043786982286
a.