(lp0
F-3.6198447337278106
aF-3.2459985798816566
aF-2.8721524260355027
aF-2.498306272189367
aF-2.1244601183431935
aF-1.7506139644970529
aF-1.376767810650859
aF-1.0029216568047334
aF-0.629075502958608
aF-0.2552293491123989
a.