(lp0
F-3.8067491183431574
aF-3.4329216568047336
aF-3.0590755029585797
aF-2.6852293491124257
aF-2.3113831952662474
aF-1.937537041420118
aF-1.5636908875739925
aF-1.189844733727789
aF-0.8159985798816825
aF-0.44215242603547444
a.