(lp0
F-0.07176710650887502
aF0.30729112426035504
aF0.6713007100591712
aF1.0539065088757384
aF1.3963680473372777
aF1.7963776331360948
aF2.1689834319526606
aF2.570368047337281
aF2.9299065088757392
aF3.2814545562130215
a.