(lp0
F-0.4374210650887575
aF-0.451645996055226
aF-0.5061449704142026
aF-0.47422471005917183
aF-0.6301699013806705
aF-0.2987015046491958
aF-0.46443221893491166
aF-0.5210044181459569
aF-0.4302039763313613
a.