(lp0
cnumpy.core.multiarray
scalar
p1
(cnumpy
dtype
p2
(S'f8'
p3
I0
I1
tp4
Rp5
(I3
S'<'
p6
NNNI-1
I-1
I0
tp7
bS':c\xdc\xef\xdb4!@'
p8
tp9
Rp10
ag1
(g5
S'K0\x8f6\xbc\x18+@'
p11
tp12
Rp13
ag1
(g5
S'\xda\xb3L\xe3\xab,.@'
p14
tp15
Rp16
ag1
(g5
S'[X\x00\x94)W/@'
p17
tp18
Rp19
ag1
(g5
S'\x01"\xac\x8b\xf0\xc5/@'
p20
tp21
Rp22
ag1
(g5
S'\x89\xb8-G\x1c\xe4/@'
p23
tp24
Rp25
ag1
(g5
S'\xadg\x92\x94_\x030@'
p26
tp27
Rp28
ag1
(g5
S'N\xd6\xbbS\xf7\x080@'
p29
tp30
Rp31
ag1
(g5
S'\xe3p[B=\r0@'
p32
tp33
Rp34
a.