(lp0
F-1.6489268717948677
aF-1.7595068520710049
aF-1.785495715976344
aF-1.6302091360946753
aF-1.572133278106514
aF-1.4498769230769242
aF-1.3935408757396415
aF-1.1572319053254438
aF-0.39412728994082674
a.