(lp0
cnumpy.core.multiarray
scalar
p1
(cnumpy
dtype
p2
(S'f8'
p3
I0
I1
tp4
Rp5
(I3
S'<'
p6
NNNI-1
I-1
I0
tp7
bS'w6\x9e\xb5\xeb\xfb\xcc?'
p8
tp9
Rp10
ag1
(g5
S'x\x8c\x98\t+q\xb5?'
p11
tp12
Rp13
ag1
(g5
S'\xb2\xb9\x8c~<^\xcf?'
p14
tp15
Rp16
ag1
(g5
S'\xbeQA\xce`\xfc\xca?'
p17
tp18
Rp19
ag1
(g5
S'R\xf6k#9I\xcd?'
p20
tp21
Rp22
ag1
(g5
S'|\xd3\x8e\xcf\xdb\xab\xd0?'
p23
tp24
Rp25
ag1
(g5
S'`qa\xe6Zy\xce?'
p26
tp27
Rp28
a.