(lp0
cnumpy.core.multiarray
scalar
p1
(cnumpy
dtype
p2
(S'f8'
p3
I0
I1
tp4
Rp5
(I3
S'<'
p6
NNNI-1
I-1
I0
tp7
bS'\x1c \x7fw\xcfB\xc7?'
p8
tp9
Rp10
ag1
(g5
S'^\xa8\xe5\xbd\xcf\xf1\xc6?'
p11
tp12
Rp13
ag1
(g5
S'`huy\xd0Y\xc7?'
p14
tp15
Rp16
ag1
(g5
S'z\x9codI=\xc4?'
p17
tp18
Rp19
ag1
(g5
S'\xac\xe6\xd1(\x80\xdc\xc9?'
p20
tp21
Rp22
a.