(lp0
cnumpy.core.multiarray
scalar
p1
(cnumpy
dtype
p2
(S'f8'
p3
I0
I1
tp4
Rp5
(I3
S'<'
p6
NNNI-1
I-1
I0
tp7
bS'\xfa]\xd0:u\xf9\xe0?'
p8
tp9
Rp10
ag1
(g5
S'\\%\xc5X\xa8(\xf0?'
p11
tp12
Rp13
ag1
(g5
S'\xf8\xb5\x1aShA\xe7?'
p14
tp15
Rp16
ag1
(g5
S'h\xa0\xa7LY\xb5\xd0?'
p17
tp18
Rp19
ag1
(g5
S'\xba\x80zd\x9a\xce\xad\xbf'
p20
tp21
Rp22
a.