(lp0
F-0.9794986982248519
aF-0.8726723471400389
aF-0.7172141420118325
aF-0.6049671005917177
aF-0.6166653648915185
aF-0.5956069315300095
aF-0.47808686390532695
aF-0.5592687442472042
aF-0.34811237869822537
a.