(lp0
F-1.19278650887574
aF-0.7411196055226821
aF-0.8793172189349114
aF-0.5842239053254431
aF-0.6204525838264316
aF-0.5493347083685544
aF-0.479573402366865
aF-0.5844670085470091
aF-0.49872201183432024
a.